   1               		.file	"action.c"
   2               	__SREG__ = 0x3f
   3               	__SP_H__ = 0x3e
   4               	__SP_L__ = 0x3d
   5               	__CCP__  = 0x34
   6               	__tmp_reg__ = 0
   7               	__zero_reg__ = 1
  15               	.Ltext0:
  16               		.section	.text.debug_event,"ax",@progbits
  17               	.global	debug_event
  19               	debug_event:
  20               	.LFB14:
  21               	.LSM0:
  22 0000 DF93      		push r29
  23 0002 CF93      		push r28
  24 0004 00D0      		rcall .
  25 0006 00D0      		rcall .
  26 0008 0F92      		push __tmp_reg__
  27 000a CDB7      		in r28,__SP_L__
  28 000c DEB7      		in r29,__SP_H__
  29               	/* prologue: function */
  30               	/* frame size = 5 */
  31               	/* epilogue start */
  32               	.LSM1:
  33 000e 0F90      		pop __tmp_reg__
  34 0010 0F90      		pop __tmp_reg__
  35 0012 0F90      		pop __tmp_reg__
  36 0014 0F90      		pop __tmp_reg__
  37 0016 0F90      		pop __tmp_reg__
  38 0018 CF91      		pop r28
  39 001a DF91      		pop r29
  40 001c 0895      		ret
  41               	.LFE14:
  43               		.section	.text.debug_record,"ax",@progbits
  44               	.global	debug_record
  46               	debug_record:
  47               	.LFB15:
  48               	.LSM2:
  49 0000 DF93      		push r29
  50 0002 CF93      		push r28
  51 0004 00D0      		rcall .
  52 0006 00D0      		rcall .
  53 0008 00D0      		rcall .
  54 000a CDB7      		in r28,__SP_L__
  55 000c DEB7      		in r29,__SP_H__
  56               	/* prologue: function */
  57               	/* frame size = 6 */
  58               	/* epilogue start */
  59               	.LSM3:
  60 000e 2696      		adiw r28,6
  61 0010 0FB6      		in __tmp_reg__,__SREG__
  62 0012 F894      		cli
  63 0014 DEBF      		out __SP_H__,r29
  64 0016 0FBE      		out __SREG__,__tmp_reg__
  65 0018 CDBF      		out __SP_L__,r28
  66 001a CF91      		pop r28
  67 001c DF91      		pop r29
  68 001e 0895      		ret
  69               	.LFE15:
  71               		.section	.text.debug_action,"ax",@progbits
  72               	.global	debug_action
  74               	debug_action:
  75               	.LFB16:
  76               	.LSM4:
  77               	.LVL0:
  78               	/* prologue: function */
  79               	/* frame size = 0 */
  80               	/* epilogue start */
  81               	.LSM5:
  82 0000 0895      		ret
  83               	.LFE16:
  85               		.section	.text.is_tap_key,"ax",@progbits
  86               	.global	is_tap_key
  88               	is_tap_key:
  89               	.LFB13:
  90               	.LSM6:
  91               	.LVL1:
  92               	/* prologue: function */
  93               	/* frame size = 0 */
  94               	.LSM7:
  95 0000 0E94 0000 		call layer_switch_get_action
  96               	.LVL2:
  97 0004 482F      		mov r20,r24
  98               	.LVL3:
  99               	.LSM8:
 100 0006 892F      		mov r24,r25
 101               	.LVL4:
 102 0008 8295      		swap r24
 103 000a 8F70      		andi r24,lo8(15)
 104 000c 282F      		mov r18,r24
 105 000e 30E0      		ldi r19,lo8(0)
 106 0010 2C30      		cpi r18,12
 107 0012 3105      		cpc r19,__zero_reg__
 108 0014 04F4      		brge .L11
 109 0016 2A30      		cpi r18,10
 110 0018 3105      		cpc r19,__zero_reg__
 111 001a 04F4      		brge .L9
 112 001c 2250      		subi r18,lo8(-(-2))
 113 001e 3040      		sbci r19,hi8(-(-2))
 114 0020 2230      		cpi r18,2
 115 0022 3105      		cpc r19,__zero_reg__
 116 0024 00F4      		brsh .L8
 117 0026 00C0      		rjmp .L9
 118               	.L11:
 119 0028 2C30      		cpi r18,12
 120 002a 3105      		cpc r19,__zero_reg__
 121 002c 01F0      		breq .L10
 122 002e 2F30      		cpi r18,15
 123 0030 3105      		cpc r19,__zero_reg__
 124 0032 01F4      		brne .L8
 125 0034 00C0      		rjmp .L10
 126               	.L9:
 127               	.LSM9:
 128 0036 403E      		cpi r20,lo8(-32)
 129 0038 00F0      		brlo .L12
 130 003a 403F      		cpi r20,lo8(-16)
 131 003c 01F4      		brne .L8
 132               	.L12:
 133 003e 81E0      		ldi r24,lo8(1)
 134 0040 0895      		ret
 135               	.L10:
 136               	.LSM10:
 137 0042 9F70      		andi r25,lo8(15)
 138 0044 892F      		mov r24,r25
 139 0046 90E0      		ldi r25,lo8(0)
 140               	.LVL5:
 141 0048 23E0      		ldi r18,3
 142 004a 9695      	1:	lsr r25
 143 004c 8795      		ror r24
 144 004e 2A95      		dec r18
 145 0050 01F4      		brne 1b
 146 0052 8170      		andi r24,lo8(1)
 147 0054 0895      		ret
 148               	.LVL6:
 149               	.L8:
 150 0056 80E0      		ldi r24,lo8(0)
 151               	.LSM11:
 152 0058 0895      		ret
 153               	.LFE13:
 155               		.section	.text.clear_keyboard_but_mods,"ax",@progbits
 156               	.global	clear_keyboard_but_mods
 158               	clear_keyboard_but_mods:
 159               	.LFB12:
 160               	.LSM12:
 161               	/* prologue: function */
 162               	/* frame size = 0 */
 163               	.LSM13:
 164 0000 0E94 0000 		call clear_weak_mods
 165               	.LSM14:
 166 0004 0E94 0000 		call clear_keys
 167               	.LSM15:
 168 0008 0E94 0000 		call send_keyboard_report
 169               	/* epilogue start */
 170               	.LSM16:
 171 000c 0895      		ret
 172               	.LFE12:
 174               		.section	.text.clear_keyboard,"ax",@progbits
 175               	.global	clear_keyboard
 177               	clear_keyboard:
 178               	.LFB11:
 179               	.LSM17:
 180               	/* prologue: function */
 181               	/* frame size = 0 */
 182               	.LSM18:
 183 0000 0E94 0000 		call clear_mods
 184               	.LSM19:
 185 0004 0E94 0000 		call clear_keyboard_but_mods
 186               	/* epilogue start */
 187               	.LSM20:
 188 0008 0895      		ret
 189               	.LFE11:
 191               		.section	.text.unregister_mods,"ax",@progbits
 192               	.global	unregister_mods
 194               	unregister_mods:
 195               	.LFB10:
 196               	.LSM21:
 197               	.LVL7:
 198               	/* prologue: function */
 199               	/* frame size = 0 */
 200               	.LSM22:
 201 0000 8823      		tst r24
 202 0002 01F0      		breq .L21
 203               	.LSM23:
 204 0004 0E94 0000 		call del_mods
 205               	.LVL8:
 206               	.LSM24:
 207 0008 0E94 0000 		call send_keyboard_report
 208               	.LVL9:
 209               	.L21:
 210 000c 0895      		ret
 211               	.LFE10:
 213               		.section	.text.register_mods,"ax",@progbits
 214               	.global	register_mods
 216               	register_mods:
 217               	.LFB9:
 218               	.LSM25:
 219               	.LVL10:
 220               	/* prologue: function */
 221               	/* frame size = 0 */
 222               	.LSM26:
 223 0000 8823      		tst r24
 224 0002 01F0      		breq .L24
 225               	.LSM27:
 226 0004 0E94 0000 		call add_mods
 227               	.LVL11:
 228               	.LSM28:
 229 0008 0E94 0000 		call send_keyboard_report
 230               	.LVL12:
 231               	.L24:
 232 000c 0895      		ret
 233               	.LFE9:
 235               		.section	.text.unregister_code,"ax",@progbits
 236               	.global	unregister_code
 238               	unregister_code:
 239               	.LFB8:
 240               	.LSM29:
 241               	.LVL13:
 242               	/* prologue: function */
 243               	/* frame size = 0 */
 244 0000 282F      		mov r18,r24
 245               	.LSM30:
 246 0002 8823      		tst r24
 247 0004 01F4      		brne .+2
 248 0006 00C0      		rjmp .L33
 249               	.LSM31:
 250 0008 8238      		cpi r24,lo8(-126)
 251 000a 01F4      		brne .L27
 252               	.LSM32:
 253 000c 0E94 0000 		call host_keyboard_leds
 254               	.LVL14:
 255 0010 81FF      		sbrs r24,1
 256 0012 00C0      		rjmp .L33
 257               	.LSM33:
 258 0014 89E3      		ldi r24,lo8(57)
 259 0016 0E94 0000 		call add_key
 260               	.LSM34:
 261 001a 0E94 0000 		call send_keyboard_report
 262               	.LSM35:
 263 001e 89E3      		ldi r24,lo8(57)
 264 0020 00C0      		rjmp .L35
 265               	.LVL15:
 266               	.L27:
 267               	.LSM36:
 268 0022 8338      		cpi r24,lo8(-125)
 269 0024 01F4      		brne .L28
 270               	.LSM37:
 271 0026 0E94 0000 		call host_keyboard_leds
 272               	.LVL16:
 273 002a 80FF      		sbrs r24,0
 274 002c 00C0      		rjmp .L33
 275               	.LSM38:
 276 002e 83E5      		ldi r24,lo8(83)
 277 0030 0E94 0000 		call add_key
 278               	.LSM39:
 279 0034 0E94 0000 		call send_keyboard_report
 280               	.LSM40:
 281 0038 83E5      		ldi r24,lo8(83)
 282               	.LVL17:
 283               	.L35:
 284 003a 0E94 0000 		call del_key
 285               	.LVL18:
 286 003e 00C0      		rjmp .L34
 287               	.LVL19:
 288               	.L28:
 289               	.LSM41:
 290 0040 8438      		cpi r24,lo8(-124)
 291 0042 01F4      		brne .L29
 292               	.LSM42:
 293 0044 0E94 0000 		call host_keyboard_leds
 294               	.LVL20:
 295 0048 82FF      		sbrs r24,2
 296 004a 00C0      		rjmp .L33
 297               	.LSM43:
 298 004c 87E4      		ldi r24,lo8(71)
 299 004e 0E94 0000 		call add_key
 300               	.LSM44:
 301 0052 0E94 0000 		call send_keyboard_report
 302               	.LSM45:
 303 0056 87E4      		ldi r24,lo8(71)
 304 0058 00C0      		rjmp .L35
 305               	.LVL21:
 306               	.L29:
 307               	.LSM46:
 308 005a 8450      		subi r24,lo8(-(-4))
 309               	.LVL22:
 310 005c 813A      		cpi r24,lo8(-95)
 311 005e 00F4      		brsh .L30
 312               	.LSM47:
 313 0060 822F      		mov r24,r18
 314 0062 00C0      		rjmp .L35
 315               	.L30:
 316               	.LSM48:
 317 0064 822F      		mov r24,r18
 318 0066 805E      		subi r24,lo8(-(32))
 319 0068 8830      		cpi r24,lo8(8)
 320 006a 00F4      		brsh .L31
 321               	.LSM49:
 322 006c 2770      		andi r18,lo8(7)
 323 006e 81E0      		ldi r24,lo8(1)
 324 0070 90E0      		ldi r25,hi8(1)
 325 0072 00C0      		rjmp 2f
 326 0074 880F      	1:	lsl r24
 327 0076 2A95      	2:	dec r18
 328 0078 02F4      		brpl 1b
 329 007a 0E94 0000 		call del_mods
 330               	.LVL23:
 331               	.L34:
 332               	.LSM50:
 333 007e 0E94 0000 		call send_keyboard_report
 334 0082 0895      		ret
 335               	.LVL24:
 336               	.L31:
 337               	.LSM51:
 338 0084 822F      		mov r24,r18
 339 0086 855A      		subi r24,lo8(-(91))
 340 0088 8330      		cpi r24,lo8(3)
 341 008a 00F4      		brsh .L32
 342               	.LSM52:
 343 008c 80E0      		ldi r24,lo8(0)
 344 008e 90E0      		ldi r25,hi8(0)
 345 0090 0E94 0000 		call host_system_send
 346               	.LVL25:
 347 0094 0895      		ret
 348               	.LVL26:
 349               	.L32:
 350               	.LSM53:
 351 0096 285A      		subi r18,lo8(-(88))
 352 0098 2331      		cpi r18,lo8(19)
 353 009a 00F4      		brsh .L33
 354               	.LSM54:
 355 009c 80E0      		ldi r24,lo8(0)
 356 009e 90E0      		ldi r25,hi8(0)
 357 00a0 0E94 0000 		call host_consumer_send
 358               	.LVL27:
 359               	.L33:
 360 00a4 0895      		ret
 361               	.LFE8:
 363               		.section	.text.register_code,"ax",@progbits
 364               	.global	register_code
 366               	register_code:
 367               	.LFB7:
 368               	.LSM55:
 369               	.LVL28:
 370               	/* prologue: function */
 371               	/* frame size = 0 */
 372 0000 282F      		mov r18,r24
 373               	.LSM56:
 374 0002 8823      		tst r24
 375 0004 01F4      		brne .+2
 376 0006 00C0      		rjmp .L70
 377               	.LSM57:
 378 0008 8238      		cpi r24,lo8(-126)
 379 000a 01F4      		brne .L38
 380               	.LSM58:
 381 000c 0E94 0000 		call host_keyboard_leds
 382               	.LVL29:
 383 0010 81FD      		sbrc r24,1
 384 0012 00C0      		rjmp .L70
 385               	.LSM59:
 386 0014 89E3      		ldi r24,lo8(57)
 387 0016 0E94 0000 		call add_key
 388               	.LSM60:
 389 001a 0E94 0000 		call send_keyboard_report
 390               	.LSM61:
 391 001e 89E3      		ldi r24,lo8(57)
 392 0020 00C0      		rjmp .L72
 393               	.LVL30:
 394               	.L38:
 395               	.LSM62:
 396 0022 8338      		cpi r24,lo8(-125)
 397 0024 01F4      		brne .L39
 398               	.LSM63:
 399 0026 0E94 0000 		call host_keyboard_leds
 400               	.LVL31:
 401 002a 80FD      		sbrc r24,0
 402 002c 00C0      		rjmp .L70
 403               	.LSM64:
 404 002e 83E5      		ldi r24,lo8(83)
 405 0030 0E94 0000 		call add_key
 406               	.LSM65:
 407 0034 0E94 0000 		call send_keyboard_report
 408               	.LSM66:
 409 0038 83E5      		ldi r24,lo8(83)
 410               	.L72:
 411 003a 0E94 0000 		call del_key
 412 003e 00C0      		rjmp .L71
 413               	.LVL32:
 414               	.L39:
 415               	.LSM67:
 416 0040 8438      		cpi r24,lo8(-124)
 417 0042 01F4      		brne .L40
 418               	.LSM68:
 419 0044 0E94 0000 		call host_keyboard_leds
 420               	.LVL33:
 421 0048 82FD      		sbrc r24,2
 422 004a 00C0      		rjmp .L70
 423               	.LSM69:
 424 004c 87E4      		ldi r24,lo8(71)
 425 004e 0E94 0000 		call add_key
 426               	.LSM70:
 427 0052 0E94 0000 		call send_keyboard_report
 428               	.LSM71:
 429 0056 87E4      		ldi r24,lo8(71)
 430 0058 00C0      		rjmp .L72
 431               	.LVL34:
 432               	.L40:
 433               	.LSM72:
 434 005a 8450      		subi r24,lo8(-(-4))
 435               	.LVL35:
 436 005c 813A      		cpi r24,lo8(-95)
 437 005e 00F4      		brsh .L41
 438               	.LSM73:
 439 0060 822F      		mov r24,r18
 440 0062 0E94 0000 		call add_key
 441               	.LVL36:
 442 0066 00C0      		rjmp .L71
 443               	.LVL37:
 444               	.L41:
 445               	.LSM74:
 446 0068 822F      		mov r24,r18
 447 006a 805E      		subi r24,lo8(-(32))
 448 006c 8830      		cpi r24,lo8(8)
 449 006e 00F4      		brsh .L42
 450               	.LSM75:
 451 0070 2770      		andi r18,lo8(7)
 452 0072 81E0      		ldi r24,lo8(1)
 453 0074 90E0      		ldi r25,hi8(1)
 454 0076 00C0      		rjmp 2f
 455 0078 880F      	1:	lsl r24
 456 007a 2A95      	2:	dec r18
 457 007c 02F4      		brpl 1b
 458 007e 0E94 0000 		call add_mods
 459               	.LVL38:
 460               	.L71:
 461               	.LSM76:
 462 0082 0E94 0000 		call send_keyboard_report
 463 0086 0895      		ret
 464               	.LVL39:
 465               	.L42:
 466               	.LSM77:
 467 0088 822F      		mov r24,r18
 468 008a 855A      		subi r24,lo8(-(91))
 469 008c 8330      		cpi r24,lo8(3)
 470 008e 00F4      		brsh .L43
 471               	.LSM78:
 472 0090 253A      		cpi r18,lo8(-91)
 473 0092 01F4      		brne .L44
 474 0094 81E8      		ldi r24,lo8(129)
 475 0096 90E0      		ldi r25,hi8(129)
 476 0098 00C0      		rjmp .L45
 477               	.L44:
 478 009a 263A      		cpi r18,lo8(-90)
 479 009c 01F4      		brne .L46
 480 009e 82E8      		ldi r24,lo8(130)
 481 00a0 90E0      		ldi r25,hi8(130)
 482 00a2 00C0      		rjmp .L45
 483               	.L46:
 484 00a4 273A      		cpi r18,lo8(-89)
 485 00a6 01F0      		breq .L47
 486 00a8 80E0      		ldi r24,lo8(0)
 487 00aa 90E0      		ldi r25,hi8(0)
 488 00ac 00C0      		rjmp .L45
 489               	.L47:
 490 00ae 83E8      		ldi r24,lo8(131)
 491 00b0 90E0      		ldi r25,hi8(131)
 492               	.L45:
 493 00b2 0E94 0000 		call host_system_send
 494               	.LVL40:
 495 00b6 0895      		ret
 496               	.LVL41:
 497               	.L43:
 498               	.LSM79:
 499 00b8 822F      		mov r24,r18
 500 00ba 885A      		subi r24,lo8(-(88))
 501 00bc 8331      		cpi r24,lo8(19)
 502 00be 00F0      		brlo .+2
 503 00c0 00C0      		rjmp .L70
 504               	.LSM80:
 505 00c2 283A      		cpi r18,lo8(-88)
 506 00c4 01F4      		brne .L48
 507 00c6 82EE      		ldi r24,lo8(226)
 508 00c8 90E0      		ldi r25,hi8(226)
 509 00ca 00C0      		rjmp .L49
 510               	.L48:
 511 00cc 293A      		cpi r18,lo8(-87)
 512 00ce 01F4      		brne .L50
 513 00d0 89EE      		ldi r24,lo8(233)
 514 00d2 90E0      		ldi r25,hi8(233)
 515 00d4 00C0      		rjmp .L49
 516               	.L50:
 517 00d6 2A3A      		cpi r18,lo8(-86)
 518 00d8 01F4      		brne .L51
 519 00da 8AEE      		ldi r24,lo8(234)
 520 00dc 90E0      		ldi r25,hi8(234)
 521 00de 00C0      		rjmp .L49
 522               	.L51:
 523 00e0 2B3A      		cpi r18,lo8(-85)
 524 00e2 01F4      		brne .L52
 525 00e4 85EB      		ldi r24,lo8(181)
 526 00e6 90E0      		ldi r25,hi8(181)
 527 00e8 00C0      		rjmp .L49
 528               	.L52:
 529 00ea 2C3A      		cpi r18,lo8(-84)
 530 00ec 01F4      		brne .L53
 531 00ee 86EB      		ldi r24,lo8(182)
 532 00f0 90E0      		ldi r25,hi8(182)
 533 00f2 00C0      		rjmp .L49
 534               	.L53:
 535 00f4 2B3B      		cpi r18,lo8(-69)
 536 00f6 01F4      		brne .L54
 537 00f8 83EB      		ldi r24,lo8(179)
 538 00fa 90E0      		ldi r25,hi8(179)
 539 00fc 00C0      		rjmp .L49
 540               	.L54:
 541 00fe 2C3B      		cpi r18,lo8(-68)
 542 0100 01F4      		brne .L55
 543 0102 84EB      		ldi r24,lo8(180)
 544 0104 90E0      		ldi r25,hi8(180)
 545 0106 00C0      		rjmp .L49
 546               	.L55:
 547 0108 2D3A      		cpi r18,lo8(-83)
 548 010a 01F4      		brne .L56
 549 010c 87EB      		ldi r24,lo8(183)
 550 010e 90E0      		ldi r25,hi8(183)
 551 0110 00C0      		rjmp .L49
 552               	.L56:
 553 0112 203B      		cpi r18,lo8(-80)
 554 0114 01F4      		brne .L57
 555 0116 8CEC      		ldi r24,lo8(204)
 556 0118 90E0      		ldi r25,hi8(204)
 557 011a 00C0      		rjmp .L49
 558               	.L57:
 559 011c 2E3A      		cpi r18,lo8(-82)
 560 011e 01F4      		brne .L58
 561 0120 8DEC      		ldi r24,lo8(205)
 562 0122 90E0      		ldi r25,hi8(205)
 563 0124 00C0      		rjmp .L49
 564               	.L58:
 565 0126 2F3A      		cpi r18,lo8(-81)
 566 0128 01F4      		brne .L59
 567 012a 83E8      		ldi r24,lo8(387)
 568 012c 91E0      		ldi r25,hi8(387)
 569 012e 00C0      		rjmp .L49
 570               	.L59:
 571 0130 213B      		cpi r18,lo8(-79)
 572 0132 01F4      		brne .L60
 573 0134 8AE8      		ldi r24,lo8(394)
 574 0136 91E0      		ldi r25,hi8(394)
 575 0138 00C0      		rjmp .L49
 576               	.L60:
 577 013a 223B      		cpi r18,lo8(-78)
 578 013c 01F4      		brne .L61
 579 013e 82E9      		ldi r24,lo8(402)
 580 0140 91E0      		ldi r25,hi8(402)
 581 0142 00C0      		rjmp .L49
 582               	.L61:
 583 0144 233B      		cpi r18,lo8(-77)
 584 0146 01F4      		brne .L62
 585 0148 84E9      		ldi r24,lo8(404)
 586 014a 91E0      		ldi r25,hi8(404)
 587 014c 00C0      		rjmp .L49
 588               	.L62:
 589 014e 243B      		cpi r18,lo8(-76)
 590 0150 01F4      		brne .L63
 591 0152 81E2      		ldi r24,lo8(545)
 592 0154 92E0      		ldi r25,hi8(545)
 593 0156 00C0      		rjmp .L49
 594               	.L63:
 595 0158 253B      		cpi r18,lo8(-75)
 596 015a 01F4      		brne .L64
 597 015c 83E2      		ldi r24,lo8(547)
 598 015e 92E0      		ldi r25,hi8(547)
 599 0160 00C0      		rjmp .L49
 600               	.L64:
 601 0162 263B      		cpi r18,lo8(-74)
 602 0164 01F4      		brne .L65
 603 0166 84E2      		ldi r24,lo8(548)
 604 0168 92E0      		ldi r25,hi8(548)
 605 016a 00C0      		rjmp .L49
 606               	.L65:
 607 016c 273B      		cpi r18,lo8(-73)
 608 016e 01F4      		brne .L66
 609 0170 85E2      		ldi r24,lo8(549)
 610 0172 92E0      		ldi r25,hi8(549)
 611 0174 00C0      		rjmp .L49
 612               	.L66:
 613 0176 283B      		cpi r18,lo8(-72)
 614 0178 01F4      		brne .L67
 615 017a 86E2      		ldi r24,lo8(550)
 616 017c 92E0      		ldi r25,hi8(550)
 617 017e 00C0      		rjmp .L49
 618               	.L67:
 619 0180 293B      		cpi r18,lo8(-71)
 620 0182 01F4      		brne .L68
 621 0184 87E2      		ldi r24,lo8(551)
 622 0186 92E0      		ldi r25,hi8(551)
 623 0188 00C0      		rjmp .L49
 624               	.L68:
 625 018a 2A3B      		cpi r18,lo8(-70)
 626 018c 01F0      		breq .L69
 627 018e 80E0      		ldi r24,lo8(0)
 628 0190 90E0      		ldi r25,hi8(0)
 629 0192 00C0      		rjmp .L49
 630               	.L69:
 631 0194 8AE2      		ldi r24,lo8(554)
 632 0196 92E0      		ldi r25,hi8(554)
 633               	.L49:
 634 0198 0E94 0000 		call host_consumer_send
 635               	.LVL42:
 636               	.L70:
 637 019c 0895      		ret
 638               	.LFE7:
 640               		.section	.text.process_action,"ax",@progbits
 641               	.global	process_action
 643               	process_action:
 644               	.LFB6:
 645               	.LSM81:
 646               	.LVL43:
 647 0000 AF92      		push r10
 648 0002 BF92      		push r11
 649 0004 CF92      		push r12
 650 0006 DF92      		push r13
 651 0008 EF92      		push r14
 652 000a FF92      		push r15
 653 000c 0F93      		push r16
 654 000e 1F93      		push r17
 655 0010 DF93      		push r29
 656 0012 CF93      		push r28
 657 0014 CDB7      		in r28,__SP_L__
 658 0016 DEB7      		in r29,__SP_H__
 659 0018 2A97      		sbiw r28,10
 660 001a 0FB6      		in __tmp_reg__,__SREG__
 661 001c F894      		cli
 662 001e DEBF      		out __SP_H__,r29
 663 0020 0FBE      		out __SREG__,__tmp_reg__
 664 0022 CDBF      		out __SP_L__,r28
 665               	/* prologue: function */
 666               	/* frame size = 10 */
 667 0024 5C01      		movw r10,r24
 668               	.LSM82:
 669 0026 DE01      		movw r26,r28
 670 0028 1196      		adiw r26,1
 671 002a FC01      		movw r30,r24
 672 002c 85E0      		ldi r24,lo8(5)
 673               	.LVL44:
 674               	.L74:
 675 002e 0190      		ld r0,Z+
 676 0030 0D92      		st X+,r0
 677 0032 8150      		subi r24,lo8(-(-1))
 678 0034 01F4      		brne .L74
 679 0036 FB80      		ldd r15,Y+3
 680               	.LSM83:
 681 0038 F501      		movw r30,r10
 682               	.LVL45:
 683 003a 0581      		ldd r16,Z+5
 684 003c 0295      		swap r16
 685 003e 0F70      		andi r16,lo8(15)
 686               	.LSM84:
 687 0040 DE01      		movw r26,r28
 688 0042 1696      		adiw r26,6
 689 0044 FE01      		movw r30,r28
 690 0046 3196      		adiw r30,1
 691 0048 85E0      		ldi r24,lo8(5)
 692               	.L75:
 693 004a 0190      		ld r0,Z+
 694 004c 0D92      		st X+,r0
 695 004e 8150      		subi r24,lo8(-(-1))
 696 0050 01F4      		brne .L75
 697 0052 3E81      		ldd r19,Y+6
 698 0054 2F81      		ldd r18,Y+7
 699               	.LBB10:
 700               	.LBB11:
 701               	.LSM85:
 702 0056 8985      		ldd r24,Y+9
 703 0058 9A85      		ldd r25,Y+10
 704 005a 892B      		or r24,r25
 705 005c 01F4      		brne .+2
 706 005e 00C0      		rjmp .L137
 707 0060 2F3F      		cpi r18,lo8(-1)
 708 0062 01F0      		breq .+2
 709 0064 00C0      		rjmp .L77
 710 0066 3F3F      		cpi r19,lo8(-1)
 711 0068 01F0      		breq .+2
 712 006a 00C0      		rjmp .L77
 713 006c 00C0      		rjmp .L137
 714               	.LVL46:
 715               	.L78:
 716 006e 8D2D      		mov r24,r13
 717 0070 8F70      		andi r24,lo8(15)
 718               	.LBE11:
 719               	.LBE10:
 720               	.LBB12:
 721               	.LSM86:
 722 0072 F0EF      		ldi r31,lo8(-16)
 723 0074 DF22      		and r13,r31
 724 0076 01F4      		brne .L79
 725 0078 182F      		mov r17,r24
 726               	.LVL47:
 727 007a 00C0      		rjmp .L80
 728               	.LVL48:
 729               	.L79:
 730 007c 182F      		mov r17,r24
 731               	.LVL49:
 732 007e 1295      		swap r17
 733 0080 107F      		andi r17,lo8(-16)
 734               	.L80:
 735               	.LSM87:
 736 0082 FF20      		tst r15
 737 0084 01F0      		breq .L81
 738               	.LSM88:
 739 0086 1123      		tst r17
 740 0088 01F4      		brne .+2
 741 008a 00C0      		rjmp .L149
 742               	.LSM89:
 743 008c 812F      		mov r24,r17
 744 008e 0E94 0000 		call add_weak_mods
 745               	.LSM90:
 746 0092 0E94 0000 		call send_keyboard_report
 747 0096 00C0      		rjmp .L149
 748               	.L81:
 749               	.LSM91:
 750 0098 8C2D      		mov r24,r12
 751               	.LVL50:
 752 009a 0E94 0000 		call unregister_code
 753               	.LSM92:
 754 009e 1123      		tst r17
 755 00a0 01F4      		brne .+2
 756 00a2 00C0      		rjmp .L137
 757               	.LSM93:
 758 00a4 812F      		mov r24,r17
 759 00a6 0E94 0000 		call del_weak_mods
 760               	.LSM94:
 761 00aa 0E94 0000 		call send_keyboard_report
 762 00ae 00C0      		rjmp .L137
 763               	.LVL51:
 764               	.L162:
 765 00b0 8D2D      		mov r24,r13
 766 00b2 8F70      		andi r24,lo8(15)
 767               	.LBE12:
 768               	.LBB13:
 769               	.LSM95:
 770 00b4 20EF      		ldi r18,lo8(-16)
 771 00b6 D222      		and r13,r18
 772 00b8 90E2      		ldi r25,lo8(32)
 773 00ba D916      		cp r13,r25
 774 00bc 01F4      		brne .L84
 775 00be 182F      		mov r17,r24
 776               	.LVL52:
 777 00c0 00C0      		rjmp .L85
 778               	.LVL53:
 779               	.L84:
 780 00c2 182F      		mov r17,r24
 781               	.LVL54:
 782 00c4 1295      		swap r17
 783 00c6 107F      		andi r17,lo8(-16)
 784               	.L85:
 785               	.LSM96:
 786 00c8 CC20      		tst r12
 787               	.LVL55:
 788 00ca 01F0      		breq .L87
 789 00cc E1E0      		ldi r30,lo8(1)
 790 00ce CE16      		cp r12,r30
 791 00d0 01F4      		brne .L140
 792 00d2 00C0      		rjmp .L157
 793               	.L87:
 794               	.LSM97:
 795 00d4 FF20      		tst r15
 796 00d6 01F0      		breq .L89
 797               	.LSM98:
 798 00d8 0023      		tst r16
 799 00da 01F0      		breq .L148
 800               	.L90:
 801               	.LSM99:
 802 00dc 0130      		cpi r16,lo8(1)
 803 00de 01F4      		brne .L148
 804               	.LSM100:
 805 00e0 812F      		mov r24,r17
 806 00e2 0E94 0000 		call set_oneshot_mods
 807 00e6 00C0      		rjmp .L137
 808               	.L89:
 809               	.LSM101:
 810 00e8 0023      		tst r16
 811 00ea 01F0      		breq .L145
 812               	.L92:
 813               	.LSM102:
 814 00ec 0130      		cpi r16,lo8(1)
 815 00ee 01F4      		brne .+2
 816 00f0 00C0      		rjmp .L137
 817               	.L145:
 818               	.LSM103:
 819 00f2 0E94 0000 		call clear_oneshot_mods
 820 00f6 00C0      		rjmp .L154
 821               	.L157:
 822               	.LSM104:
 823 00f8 FF20      		tst r15
 824 00fa 01F0      		breq .L93
 825               	.LSM105:
 826 00fc 0630      		cpi r16,lo8(6)
 827 00fe 00F0      		brlo .+2
 828 0100 00C0      		rjmp .L137
 829               	.LSM106:
 830 0102 0E94 0000 		call get_mods
 831 0106 8123      		and r24,r17
 832 0108 01F0      		breq .L148
 833 010a 00C0      		rjmp .L154
 834               	.L93:
 835               	.LSM107:
 836 010c 0530      		cpi r16,lo8(5)
 837 010e 00F0      		brlo .+2
 838 0110 00C0      		rjmp .L137
 839 0112 00C0      		rjmp .L154
 840               	.L140:
 841               	.LSM108:
 842 0114 FF20      		tst r15
 843 0116 01F0      		breq .L95
 844               	.LSM109:
 845 0118 0023      		tst r16
 846 011a 01F0      		breq .L148
 847               	.LSM110:
 848 011c F501      		movw r30,r10
 849 011e 8581      		ldd r24,Z+5
 850 0120 80FF      		sbrs r24,0
 851 0122 00C0      		rjmp .L149
 852               	.LSM111:
 853 0124 8F70      		andi r24,lo8(15)
 854 0126 8583      		std Z+5,r24
 855               	.L148:
 856               	.LSM112:
 857 0128 812F      		mov r24,r17
 858 012a 0E94 0000 		call register_mods
 859 012e 00C0      		rjmp .L137
 860               	.L95:
 861               	.LSM113:
 862 0130 0023      		tst r16
 863 0132 01F4      		brne .+2
 864 0134 00C0      		rjmp .L154
 865 0136 00C0      		rjmp .L152
 866               	.LVL56:
 867               	.L99:
 868               	.LBE13:
 869               	.LSM114:
 870 0138 8D2D      		mov r24,r13
 871 013a 8370      		andi r24,lo8(3)
 872 013c 01F0      		breq .+2
 873 013e 00C0      		rjmp .L100
 874               	.LSM115:
 875 0140 FF20      		tst r15
 876 0142 01F0      		breq .+2
 877 0144 00C0      		rjmp .L137
 878               	.LBB14:
 879               	.LSM116:
 880 0146 2C2D      		mov r18,r12
 881               	.LVL57:
 882 0148 2295      		swap r18
 883 014a 2695      		lsr r18
 884 014c 2770      		andi r18,lo8(7)
 885 014e 220F      		lsl r18
 886 0150 220F      		lsl r18
 887 0152 8C2D      		mov r24,r12
 888 0154 8F70      		andi r24,lo8(15)
 889 0156 E82E      		mov r14,r24
 890               	.LVL58:
 891 0158 FF24      		clr r15
 892               	.LVL59:
 893 015a 00E0      		ldi r16,lo8(0)
 894 015c 10E0      		ldi r17,hi8(0)
 895               	.LVL60:
 896 015e 022E      		mov r0,r18
 897 0160 00C0      		rjmp 2f
 898 0162 EE0C      	1:	lsl r14
 899 0164 FF1C      		rol r15
 900 0166 001F      		rol r16
 901 0168 111F      		rol r17
 902 016a 0A94      	2:	dec r0
 903 016c 02F4      		brpl 1b
 904               	.LVL61:
 905               	.LSM117:
 906 016e C4FC      		sbrc r12,4
 907 0170 00C0      		rjmp .L101
 908 0172 60E0      		ldi r22,lo8(0)
 909 0174 70E0      		ldi r23,hi8(0)
 910 0176 80E0      		ldi r24,hlo8(0)
 911 0178 90E0      		ldi r25,hhi8(0)
 912               	.LVL62:
 913 017a 00C0      		rjmp .L102
 914               	.LVL63:
 915               	.L101:
 916 017c 6FE0      		ldi r22,lo8(15)
 917 017e 70E0      		ldi r23,hi8(15)
 918 0180 80E0      		ldi r24,hlo8(15)
 919 0182 90E0      		ldi r25,hhi8(15)
 920               	.LVL64:
 921 0184 00C0      		rjmp 2f
 922 0186 660F      	1:	lsl r22
 923 0188 771F      		rol r23
 924 018a 881F      		rol r24
 925 018c 991F      		rol r25
 926 018e 2A95      	2:	dec r18
 927 0190 02F4      		brpl 1b
 928 0192 6095      		com r22
 929 0194 7095      		com r23
 930 0196 8095      		com r24
 931 0198 9095      		com r25
 932               	.L102:
 933               	.LSM118:
 934 019a D694      		lsr r13
 935 019c D694      		lsr r13
 936 019e F3E0      		ldi r31,lo8(3)
 937 01a0 DF22      		and r13,r31
 938 01a2 4D2D      		mov r20,r13
 939 01a4 50E0      		ldi r21,lo8(0)
 940 01a6 4130      		cpi r20,1
 941 01a8 5105      		cpc r21,__zero_reg__
 942 01aa 01F0      		breq .L104
 943 01ac 4230      		cpi r20,2
 944 01ae 5105      		cpc r21,__zero_reg__
 945 01b0 04F4      		brge .L107
 946 01b2 452B      		or r20,r21
 947 01b4 01F0      		breq .L103
 948 01b6 00C0      		rjmp .L137
 949               	.L107:
 950 01b8 4230      		cpi r20,2
 951 01ba 5105      		cpc r21,__zero_reg__
 952 01bc 01F0      		breq .L105
 953 01be 4330      		cpi r20,3
 954 01c0 5105      		cpc r21,__zero_reg__
 955 01c2 01F0      		breq .+2
 956 01c4 00C0      		rjmp .L137
 957 01c6 00C0      		rjmp .L158
 958               	.L103:
 959               	.LSM119:
 960 01c8 6E29      		or r22,r14
 961 01ca 7F29      		or r23,r15
 962 01cc 802B      		or r24,r16
 963 01ce 912B      		or r25,r17
 964 01d0 0E94 0000 		call default_layer_and
 965               	.LVL65:
 966 01d4 00C0      		rjmp .L137
 967               	.LVL66:
 968               	.L104:
 969               	.LSM120:
 970 01d6 6E29      		or r22,r14
 971 01d8 7F29      		or r23,r15
 972 01da 802B      		or r24,r16
 973 01dc 912B      		or r25,r17
 974 01de 00C0      		rjmp .L155
 975               	.L105:
 976               	.LSM121:
 977 01e0 6E29      		or r22,r14
 978 01e2 7F29      		or r23,r15
 979 01e4 802B      		or r24,r16
 980 01e6 912B      		or r25,r17
 981 01e8 0E94 0000 		call default_layer_xor
 982               	.LVL67:
 983 01ec 00C0      		rjmp .L137
 984               	.LVL68:
 985               	.L158:
 986               	.LSM122:
 987 01ee 0E94 0000 		call default_layer_and
 988               	.LVL69:
 989 01f2 C801      		movw r24,r16
 990 01f4 B701      		movw r22,r14
 991               	.LVL70:
 992               	.L155:
 993 01f6 0E94 0000 		call default_layer_or
 994               	.LVL71:
 995 01fa 00C0      		rjmp .L137
 996               	.LVL72:
 997               	.L100:
 998 01fc 90E0      		ldi r25,lo8(0)
 999               	.LBE14:
 1000               	.LSM123:
 1001 01fe FF20      		tst r15
 1002 0200 01F4      		brne .L144
 1003               	.L108:
 1004 0202 9695      		lsr r25
 1005 0204 8795      		ror r24
 1006               	.L144:
 1007 0206 8170      		andi r24,lo8(1)
 1008 0208 01F4      		brne .+2
 1009 020a 00C0      		rjmp .L137
 1010               	.LBB15:
 1011               	.LSM124:
 1012 020c 2C2D      		mov r18,r12
 1013               	.LVL73:
 1014 020e 2295      		swap r18
 1015 0210 2695      		lsr r18
 1016 0212 2770      		andi r18,lo8(7)
 1017 0214 220F      		lsl r18
 1018 0216 220F      		lsl r18
 1019 0218 8C2D      		mov r24,r12
 1020 021a 8F70      		andi r24,lo8(15)
 1021 021c E82E      		mov r14,r24
 1022               	.LVL74:
 1023 021e FF24      		clr r15
 1024               	.LVL75:
 1025 0220 00E0      		ldi r16,lo8(0)
 1026 0222 10E0      		ldi r17,hi8(0)
 1027               	.LVL76:
 1028 0224 022E      		mov r0,r18
 1029 0226 00C0      		rjmp 2f
 1030 0228 EE0C      	1:	lsl r14
 1031 022a FF1C      		rol r15
 1032 022c 001F      		rol r16
 1033 022e 111F      		rol r17
 1034 0230 0A94      	2:	dec r0
 1035 0232 02F4      		brpl 1b
 1036               	.LVL77:
 1037               	.LSM125:
 1038 0234 C4FC      		sbrc r12,4
 1039 0236 00C0      		rjmp .L110
 1040 0238 60E0      		ldi r22,lo8(0)
 1041 023a 70E0      		ldi r23,hi8(0)
 1042 023c 80E0      		ldi r24,hlo8(0)
 1043 023e 90E0      		ldi r25,hhi8(0)
 1044               	.LVL78:
 1045 0240 00C0      		rjmp .L111
 1046               	.LVL79:
 1047               	.L110:
 1048 0242 6FE0      		ldi r22,lo8(15)
 1049 0244 70E0      		ldi r23,hi8(15)
 1050 0246 80E0      		ldi r24,hlo8(15)
 1051 0248 90E0      		ldi r25,hhi8(15)
 1052               	.LVL80:
 1053 024a 00C0      		rjmp 2f
 1054 024c 660F      	1:	lsl r22
 1055 024e 771F      		rol r23
 1056 0250 881F      		rol r24
 1057 0252 991F      		rol r25
 1058 0254 2A95      	2:	dec r18
 1059 0256 02F4      		brpl 1b
 1060 0258 6095      		com r22
 1061 025a 7095      		com r23
 1062 025c 8095      		com r24
 1063 025e 9095      		com r25
 1064               	.L111:
 1065               	.LSM126:
 1066 0260 D694      		lsr r13
 1067 0262 D694      		lsr r13
 1068 0264 23E0      		ldi r18,lo8(3)
 1069 0266 D222      		and r13,r18
 1070 0268 4D2D      		mov r20,r13
 1071 026a 50E0      		ldi r21,lo8(0)
 1072 026c 4130      		cpi r20,1
 1073 026e 5105      		cpc r21,__zero_reg__
 1074 0270 01F0      		breq .L113
 1075 0272 4230      		cpi r20,2
 1076 0274 5105      		cpc r21,__zero_reg__
 1077 0276 04F4      		brge .L116
 1078 0278 452B      		or r20,r21
 1079 027a 01F0      		breq .L112
 1080 027c 00C0      		rjmp .L137
 1081               	.L116:
 1082 027e 4230      		cpi r20,2
 1083 0280 5105      		cpc r21,__zero_reg__
 1084 0282 01F0      		breq .L114
 1085 0284 4330      		cpi r20,3
 1086 0286 5105      		cpc r21,__zero_reg__
 1087 0288 01F0      		breq .+2
 1088 028a 00C0      		rjmp .L137
 1089 028c 00C0      		rjmp .L159
 1090               	.L112:
 1091               	.LSM127:
 1092 028e 6E29      		or r22,r14
 1093 0290 7F29      		or r23,r15
 1094 0292 802B      		or r24,r16
 1095 0294 912B      		or r25,r17
 1096 0296 0E94 0000 		call layer_and
 1097               	.LVL81:
 1098 029a 00C0      		rjmp .L137
 1099               	.LVL82:
 1100               	.L113:
 1101               	.LSM128:
 1102 029c 6E29      		or r22,r14
 1103 029e 7F29      		or r23,r15
 1104 02a0 802B      		or r24,r16
 1105 02a2 912B      		or r25,r17
 1106 02a4 00C0      		rjmp .L156
 1107               	.L114:
 1108               	.LSM129:
 1109 02a6 6E29      		or r22,r14
 1110 02a8 7F29      		or r23,r15
 1111 02aa 802B      		or r24,r16
 1112 02ac 912B      		or r25,r17
 1113 02ae 0E94 0000 		call layer_xor
 1114               	.LVL83:
 1115 02b2 00C0      		rjmp .L137
 1116               	.LVL84:
 1117               	.L159:
 1118               	.LSM130:
 1119 02b4 0E94 0000 		call layer_and
 1120               	.LVL85:
 1121 02b8 C801      		movw r24,r16
 1122 02ba B701      		movw r22,r14
 1123               	.LVL86:
 1124               	.L156:
 1125 02bc 0E94 0000 		call layer_or
 1126               	.LVL87:
 1127 02c0 00C0      		rjmp .L137
 1128               	.LVL88:
 1129               	.L163:
 1130               	.LBE15:
 1131               	.LSM131:
 1132 02c2 80EF      		ldi r24,lo8(-16)
 1133 02c4 C816      		cp r12,r24
 1134               	.LVL89:
 1135 02c6 01F0      		breq .L120
 1136 02c8 8C15      		cp r24,r12
 1137 02ca 00F0      		brlo .L124
 1138 02cc 90EE      		ldi r25,lo8(-32)
 1139 02ce C916      		cp r12,r25
 1140 02d0 00F0      		brlo .L118
 1141 02d2 00C0      		rjmp .L160
 1142               	.L124:
 1143 02d4 E2EF      		ldi r30,lo8(-14)
 1144 02d6 CE16      		cp r12,r30
 1145 02d8 01F0      		breq .L122
 1146 02da CE16      		cp r12,r30
 1147 02dc 00F0      		brlo .L121
 1148 02de F3EF      		ldi r31,lo8(-13)
 1149 02e0 CF16      		cp r12,r31
 1150 02e2 01F4      		brne .L118
 1151 02e4 00C0      		rjmp .L161
 1152               	.L160:
 1153 02e6 1C2D      		mov r17,r12
 1154 02e8 1F70      		andi r17,lo8(15)
 1155 02ea 8D2D      		mov r24,r13
 1156 02ec 8F71      		andi r24,lo8(31)
 1157               	.LSM132:
 1158 02ee FF20      		tst r15
 1159 02f0 01F0      		breq .L125
 1160               	.LSM133:
 1161 02f2 0E94 0000 		call layer_on
 1162 02f6 00C0      		rjmp .L148
 1163               	.L125:
 1164               	.LSM134:
 1165 02f8 0E94 0000 		call layer_off
 1166               	.LVL90:
 1167               	.L154:
 1168               	.LSM135:
 1169 02fc 812F      		mov r24,r17
 1170               	.LVL91:
 1171 02fe 0E94 0000 		call unregister_mods
 1172 0302 00C0      		rjmp .L137
 1173               	.L120:
 1174               	.LSM136:
 1175 0304 FF20      		tst r15
 1176 0306 01F0      		breq .L126
 1177               	.LSM137:
 1178 0308 0530      		cpi r16,lo8(5)
 1179 030a 00F0      		brlo .+2
 1180 030c 00C0      		rjmp .L137
 1181 030e 00C0      		rjmp .L153
 1182               	.L126:
 1183               	.LSM138:
 1184 0310 0630      		cpi r16,lo8(6)
 1185 0312 00F0      		brlo .+2
 1186 0314 00C0      		rjmp .L137
 1187               	.L153:
 1188               	.LSM139:
 1189 0316 8D2D      		mov r24,r13
 1190 0318 8F71      		andi r24,lo8(31)
 1191 031a 0E94 0000 		call layer_invert
 1192 031e 00C0      		rjmp .L137
 1193               	.L121:
 1194 0320 8D2D      		mov r24,r13
 1195 0322 8F71      		andi r24,lo8(31)
 1196               	.LSM140:
 1197 0324 FF20      		tst r15
 1198 0326 01F0      		breq .L151
 1199 0328 00C0      		rjmp .L150
 1200               	.L122:
 1201 032a 8D2D      		mov r24,r13
 1202 032c 8F71      		andi r24,lo8(31)
 1203               	.LSM141:
 1204 032e FF20      		tst r15
 1205 0330 01F0      		breq .L150
 1206 0332 00C0      		rjmp .L151
 1207               	.L161:
 1208               	.LSM142:
 1209 0334 FF20      		tst r15
 1210 0336 01F0      		breq .L129
 1211 0338 8D2D      		mov r24,r13
 1212 033a 8F71      		andi r24,lo8(31)
 1213 033c 0E94 0000 		call layer_move
 1214 0340 00C0      		rjmp .L137
 1215               	.L129:
 1216 0342 0E94 0000 		call layer_clear
 1217 0346 00C0      		rjmp .L137
 1218               	.L118:
 1219               	.LSM143:
 1220 0348 FF20      		tst r15
 1221 034a 01F0      		breq .L130
 1222               	.LSM144:
 1223 034c 0023      		tst r16
 1224 034e 01F0      		breq .L131
 1225               	.LVL92:
 1226               	.L149:
 1227               	.LSM145:
 1228 0350 8C2D      		mov r24,r12
 1229 0352 0E94 0000 		call register_code
 1230 0356 00C0      		rjmp .L137
 1231               	.LVL93:
 1232               	.L131:
 1233               	.LSM146:
 1234 0358 8D2D      		mov r24,r13
 1235 035a 8F71      		andi r24,lo8(31)
 1236               	.L150:
 1237 035c 0E94 0000 		call layer_on
 1238 0360 00C0      		rjmp .L137
 1239               	.L130:
 1240               	.LSM147:
 1241 0362 0023      		tst r16
 1242 0364 01F0      		breq .L132
 1243               	.LVL94:
 1244               	.L152:
 1245               	.LSM148:
 1246 0366 8C2D      		mov r24,r12
 1247 0368 0E94 0000 		call unregister_code
 1248 036c 00C0      		rjmp .L137
 1249               	.LVL95:
 1250               	.L132:
 1251               	.LSM149:
 1252 036e 8D2D      		mov r24,r13
 1253 0370 8F71      		andi r24,lo8(31)
 1254               	.L151:
 1255 0372 0E94 0000 		call layer_off
 1256 0376 00C0      		rjmp .L137
 1257               	.LVL96:
 1258               	.L133:
 1259               	.LSM150:
 1260 0378 2FE0      		ldi r18,lo8(15)
 1261 037a D222      		and r13,r18
 1262 037c C501      		movw r24,r10
 1263 037e 6C2D      		mov r22,r12
 1264               	.LVL97:
 1265 0380 4D2D      		mov r20,r13
 1266 0382 0E94 0000 		call action_get_macro
 1267 0386 0E94 0000 		call action_macro_play
 1268 038a 00C0      		rjmp .L137
 1269               	.LVL98:
 1270               	.L134:
 1271               	.LSM151:
 1272 038c 8FE0      		ldi r24,lo8(15)
 1273 038e D822      		and r13,r24
 1274 0390 C501      		movw r24,r10
 1275 0392 6C2D      		mov r22,r12
 1276               	.LVL99:
 1277 0394 4D2D      		mov r20,r13
 1278 0396 0E94 0000 		call action_function
 1279 039a 00C0      		rjmp .L137
 1280               	.LVL100:
 1281               	.L77:
 1282               	.LSM152:
 1283 039c 8981      		ldd r24,Y+1
 1284 039e 9A81      		ldd r25,Y+2
 1285 03a0 0E94 0000 		call layer_switch_get_action
 1286 03a4 6C01      		movw r12,r24
 1287               	.LSM153:
 1288 03a6 0E94 0000 		call layer_debug
 1289               	.LSM154:
 1290 03aa 0E94 0000 		call default_layer_debug
 1291               	.LSM155:
 1292 03ae 8D2D      		mov r24,r13
 1293               	.LVL101:
 1294 03b0 8295      		swap r24
 1295 03b2 8F70      		andi r24,lo8(15)
 1296 03b4 90E0      		ldi r25,lo8(0)
 1297 03b6 8830      		cpi r24,8
 1298 03b8 9105      		cpc r25,__zero_reg__
 1299 03ba 01F4      		brne .+2
 1300 03bc 00C0      		rjmp .L99
 1301 03be 8930      		cpi r24,9
 1302 03c0 9105      		cpc r25,__zero_reg__
 1303 03c2 04F4      		brge .L135
 1304 03c4 8230      		cpi r24,2
 1305 03c6 9105      		cpc r25,__zero_reg__
 1306 03c8 04F4      		brge .+2
 1307 03ca 00C0      		rjmp .L78
 1308 03cc 0497      		sbiw r24,4
 1309 03ce 04F4      		brge .L137
 1310 03d0 00C0      		rjmp .L162
 1311               	.L135:
 1312 03d2 8C30      		cpi r24,12
 1313 03d4 9105      		cpc r25,__zero_reg__
 1314 03d6 01F0      		breq .L133
 1315 03d8 8D30      		cpi r24,13
 1316 03da 9105      		cpc r25,__zero_reg__
 1317 03dc 04F4      		brge .L136
 1318 03de 0A97      		sbiw r24,10
 1319 03e0 04F0      		brlt .L137
 1320 03e2 00C0      		rjmp .L163
 1321               	.L136:
 1322 03e4 0F97      		sbiw r24,15
 1323 03e6 01F0      		breq .L134
 1324               	.LVL102:
 1325               	.L137:
 1326               	/* epilogue start */
 1327               	.LSM156:
 1328 03e8 2A96      		adiw r28,10
 1329 03ea 0FB6      		in __tmp_reg__,__SREG__
 1330 03ec F894      		cli
 1331 03ee DEBF      		out __SP_H__,r29
 1332 03f0 0FBE      		out __SREG__,__tmp_reg__
 1333 03f2 CDBF      		out __SP_L__,r28
 1334 03f4 CF91      		pop r28
 1335 03f6 DF91      		pop r29
 1336 03f8 1F91      		pop r17
 1337               	.LVL103:
 1338 03fa 0F91      		pop r16
 1339               	.LVL104:
 1340 03fc FF90      		pop r15
 1341               	.LVL105:
 1342 03fe EF90      		pop r14
 1343               	.LVL106:
 1344 0400 DF90      		pop r13
 1345               	.LVL107:
 1346 0402 CF90      		pop r12
 1347               	.LVL108:
 1348 0404 BF90      		pop r11
 1349 0406 AF90      		pop r10
 1350               	.LVL109:
 1351 0408 0895      		ret
 1352               	.LFE6:
 1354               		.section	.text.action_exec,"ax",@progbits
 1355               	.global	action_exec
 1357               	action_exec:
 1358               	.LFB5:
 1359               	.LSM157:
 1360 0000 DF93      		push r29
 1361 0002 CF93      		push r28
 1362 0004 CDB7      		in r28,__SP_L__
 1363 0006 DEB7      		in r29,__SP_H__
 1364 0008 2B97      		sbiw r28,11
 1365 000a 0FB6      		in __tmp_reg__,__SREG__
 1366 000c F894      		cli
 1367 000e DEBF      		out __SP_H__,r29
 1368 0010 0FBE      		out __SREG__,__tmp_reg__
 1369 0012 CDBF      		out __SP_L__,r28
 1370               	/* prologue: function */
 1371               	/* frame size = 11 */
 1372 0014 342F      		mov r19,r20
 1373 0016 4F83      		std Y+7,r20
 1374 0018 252F      		mov r18,r21
 1375 001a 5887      		std Y+8,r21
 1376 001c 6987      		std Y+9,r22
 1377 001e 7A87      		std Y+10,r23
 1378 0020 8B87      		std Y+11,r24
 1379               	.LSM158:
 1380 0022 472F      		mov r20,r23
 1381 0024 582F      		mov r21,r24
 1382               	.LSM159:
 1383 0026 FE01      		movw r30,r28
 1384 0028 3196      		adiw r30,1
 1385 002a 86E0      		ldi r24,lo8(6)
 1386 002c DF01      		movw r26,r30
 1387 002e 1D92      		st X+,__zero_reg__
 1388 0030 8A95      	        dec r24
 1389 0032 01F4      		brne .-6
 1390 0034 6B83      		std Y+3,r22
 1391 0036 3983      		std Y+1,r19
 1392 0038 2A83      		std Y+2,r18
 1393 003a 4C83      		std Y+4,r20
 1394 003c 5D83      		std Y+5,r21
 1395               	.LSM160:
 1396 003e 432F      		mov r20,r19
 1397 0040 522F      		mov r21,r18
 1398 0042 8D81      		ldd r24,Y+5
 1399 0044 9E81      		ldd r25,Y+6
 1400 0046 0E94 0000 		call action_tapping_process
 1401               	/* epilogue start */
 1402               	.LSM161:
 1403 004a 2B96      		adiw r28,11
 1404 004c 0FB6      		in __tmp_reg__,__SREG__
 1405 004e F894      		cli
 1406 0050 DEBF      		out __SP_H__,r29
 1407 0052 0FBE      		out __SREG__,__tmp_reg__
 1408 0054 CDBF      		out __SP_L__,r28
 1409 0056 CF91      		pop r28
 1410 0058 DF91      		pop r29
 1411 005a 0895      		ret
 1412               	.LFE5:
 1526               	.Letext0:
DEFINED SYMBOLS
                            *ABS*:00000000 action.c
C:\Users\User\AppData\Local\Temp/ccjzJpUT.s:2      *ABS*:0000003f __SREG__
C:\Users\User\AppData\Local\Temp/ccjzJpUT.s:3      *ABS*:0000003e __SP_H__
C:\Users\User\AppData\Local\Temp/ccjzJpUT.s:4      *ABS*:0000003d __SP_L__
C:\Users\User\AppData\Local\Temp/ccjzJpUT.s:5      *ABS*:00000034 __CCP__
C:\Users\User\AppData\Local\Temp/ccjzJpUT.s:6      *ABS*:00000000 __tmp_reg__
C:\Users\User\AppData\Local\Temp/ccjzJpUT.s:7      *ABS*:00000001 __zero_reg__
C:\Users\User\AppData\Local\Temp/ccjzJpUT.s:19     .text.debug_event:00000000 debug_event
C:\Users\User\AppData\Local\Temp/ccjzJpUT.s:46     .text.debug_record:00000000 debug_record
C:\Users\User\AppData\Local\Temp/ccjzJpUT.s:74     .text.debug_action:00000000 debug_action
C:\Users\User\AppData\Local\Temp/ccjzJpUT.s:88     .text.is_tap_key:00000000 is_tap_key
C:\Users\User\AppData\Local\Temp/ccjzJpUT.s:158    .text.clear_keyboard_but_mods:00000000 clear_keyboard_but_mods
C:\Users\User\AppData\Local\Temp/ccjzJpUT.s:177    .text.clear_keyboard:00000000 clear_keyboard
C:\Users\User\AppData\Local\Temp/ccjzJpUT.s:194    .text.unregister_mods:00000000 unregister_mods
C:\Users\User\AppData\Local\Temp/ccjzJpUT.s:216    .text.register_mods:00000000 register_mods
C:\Users\User\AppData\Local\Temp/ccjzJpUT.s:238    .text.unregister_code:00000000 unregister_code
C:\Users\User\AppData\Local\Temp/ccjzJpUT.s:366    .text.register_code:00000000 register_code
C:\Users\User\AppData\Local\Temp/ccjzJpUT.s:643    .text.process_action:00000000 process_action
C:\Users\User\AppData\Local\Temp/ccjzJpUT.s:1357   .text.action_exec:00000000 action_exec

UNDEFINED SYMBOLS
layer_switch_get_action
clear_weak_mods
clear_keys
send_keyboard_report
clear_mods
del_mods
add_mods
host_keyboard_leds
add_key
del_key
host_system_send
host_consumer_send
add_weak_mods
del_weak_mods
set_oneshot_mods
clear_oneshot_mods
get_mods
default_layer_and
default_layer_xor
default_layer_or
layer_and
layer_xor
layer_or
layer_on
layer_off
layer_invert
layer_move
layer_clear
action_get_macro
action_macro_play
action_function
layer_debug
default_layer_debug
action_tapping_process
