   1               		.file	"keymap.c"
   2               	__SREG__ = 0x3f
   3               	__SP_H__ = 0x3e
   4               	__SP_L__ = 0x3d
   5               	__CCP__  = 0x34
   6               	__tmp_reg__ = 0
   7               	__zero_reg__ = 1
  15               	.Ltext0:
  16               		.section	.text.action_get_macro,"ax",@progbits
  17               		.weak	action_get_macro
  19               	action_get_macro:
  20               	.LFB10:
  21               	.LSM0:
  22               	.LVL0:
  23               	/* prologue: function */
  24               	/* frame size = 0 */
  25               	.LSM1:
  26 0000 80E0      		ldi r24,lo8(0)
  27 0002 90E0      		ldi r25,hi8(0)
  28               	.LVL1:
  29               	/* epilogue start */
  30 0004 0895      		ret
  31               	.LFE10:
  33               		.section	.text.action_function,"ax",@progbits
  34               		.weak	action_function
  36               	action_function:
  37               	.LFB11:
  38               	.LSM2:
  39               	.LVL2:
  40               	/* prologue: function */
  41               	/* frame size = 0 */
  42               	/* epilogue start */
  43               	.LSM3:
  44 0000 0895      		ret
  45               	.LFE11:
  47               		.section	.text.action_for_key,"ax",@progbits
  48               	.global	action_for_key
  50               	action_for_key:
  51               	.LFB9:
  52               	.LSM4:
  53               	.LVL3:
  54               	/* prologue: function */
  55               	/* frame size = 0 */
  56               	.LSM5:
  57 0000 0E94 0000 		call keymap_key_to_keycode
  58               	.LVL4:
  59 0004 282F      		mov r18,r24
  60               	.LVL5:
  61               	.LSM6:
  62 0006 805C      		subi r24,lo8(-(64))
  63 0008 8032      		cpi r24,lo8(32)
  64 000a 00F4      		brsh .L6
  65               	.LSM7:
  66 000c 822F      		mov r24,r18
  67 000e 0E94 0000 		call keymap_fn_to_action
  68               	.LVL6:
  69 0012 0895      		ret
  70               	.LVL7:
  71               	.L6:
  72               	.LBB19:
  73               	.LBB20:
  74               	.LSM8:
  75 0014 2D3B      		cpi r18,lo8(-67)
  76 0016 00F4      		brsh .L16
  77 0018 283A      		cpi r18,lo8(-88)
  78 001a 00F4      		brsh .L13
  79 001c 253A      		cpi r18,lo8(-91)
  80 001e 00F4      		brsh .L12
  81 0020 2430      		cpi r18,lo8(4)
  82 0022 00F4      		brsh .L11
  83 0024 2130      		cpi r18,lo8(1)
  84 0026 01F0      		breq .+2
  85 0028 00C0      		rjmp .L9
  86 002a 00C0      		rjmp .L48
  87               	.L16:
  88 002c 283E      		cpi r18,lo8(-24)
  89 002e 00F4      		brsh .L17
  90 0030 203E      		cpi r18,lo8(-32)
  91 0032 00F4      		brsh .L11
  92 0034 2F3B      		cpi r18,lo8(-65)
  93 0036 01F0      		breq .+2
  94 0038 00C0      		rjmp .L9
  95 003a 00C0      		rjmp .L49
  96               	.L17:
  97 003c 203F      		cpi r18,lo8(-16)
  98 003e 00F4      		brsh .+2
  99 0040 00C0      		rjmp .L9
 100 0042 00C0      		rjmp .L50
 101               	.L11:
 102               	.LSM9:
 103 0044 822F      		mov r24,r18
 104               	.LVL8:
 105 0046 90E0      		ldi r25,lo8(0)
 106               	.LVL9:
 107 0048 9C01      		movw r18,r24
 108               	.LVL10:
 109 004a 00C0      		rjmp .L18
 110               	.LVL11:
 111               	.L12:
 112               	.LSM10:
 113 004c 253A      		cpi r18,lo8(-91)
 114 004e 01F4      		brne .L19
 115 0050 21E8      		ldi r18,lo8(16513)
 116 0052 30E4      		ldi r19,hi8(16513)
 117               	.LVL12:
 118 0054 00C0      		rjmp .L18
 119               	.LVL13:
 120               	.L19:
 121 0056 263A      		cpi r18,lo8(-90)
 122 0058 01F0      		breq .L21
 123 005a 23E8      		ldi r18,lo8(16515)
 124 005c 30E4      		ldi r19,hi8(16515)
 125               	.LVL14:
 126 005e 00C0      		rjmp .L18
 127               	.LVL15:
 128               	.L21:
 129 0060 22E8      		ldi r18,lo8(16514)
 130 0062 30E4      		ldi r19,hi8(16514)
 131               	.LVL16:
 132 0064 00C0      		rjmp .L18
 133               	.LVL17:
 134               	.L13:
 135               	.LSM11:
 136 0066 283A      		cpi r18,lo8(-88)
 137 0068 01F4      		brne .L22
 138 006a 22EE      		ldi r18,lo8(17634)
 139 006c 34E4      		ldi r19,hi8(17634)
 140               	.LVL18:
 141 006e 00C0      		rjmp .L18
 142               	.LVL19:
 143               	.L22:
 144 0070 293A      		cpi r18,lo8(-87)
 145 0072 01F4      		brne .L24
 146 0074 29EE      		ldi r18,lo8(17641)
 147 0076 34E4      		ldi r19,hi8(17641)
 148               	.LVL20:
 149 0078 00C0      		rjmp .L18
 150               	.LVL21:
 151               	.L24:
 152 007a 2A3A      		cpi r18,lo8(-86)
 153 007c 01F4      		brne .L25
 154 007e 2AEE      		ldi r18,lo8(17642)
 155 0080 34E4      		ldi r19,hi8(17642)
 156               	.LVL22:
 157 0082 00C0      		rjmp .L18
 158               	.LVL23:
 159               	.L25:
 160 0084 2B3A      		cpi r18,lo8(-85)
 161 0086 01F4      		brne .L26
 162 0088 25EB      		ldi r18,lo8(17589)
 163 008a 34E4      		ldi r19,hi8(17589)
 164               	.LVL24:
 165 008c 00C0      		rjmp .L18
 166               	.LVL25:
 167               	.L26:
 168 008e 2C3A      		cpi r18,lo8(-84)
 169 0090 01F4      		brne .L27
 170 0092 26EB      		ldi r18,lo8(17590)
 171 0094 34E4      		ldi r19,hi8(17590)
 172               	.LVL26:
 173 0096 00C0      		rjmp .L18
 174               	.LVL27:
 175               	.L27:
 176 0098 2B3B      		cpi r18,lo8(-69)
 177 009a 01F4      		brne .L28
 178 009c 23EB      		ldi r18,lo8(17587)
 179 009e 34E4      		ldi r19,hi8(17587)
 180               	.LVL28:
 181 00a0 00C0      		rjmp .L18
 182               	.LVL29:
 183               	.L28:
 184 00a2 2C3B      		cpi r18,lo8(-68)
 185 00a4 01F4      		brne .L29
 186 00a6 24EB      		ldi r18,lo8(17588)
 187 00a8 34E4      		ldi r19,hi8(17588)
 188               	.LVL30:
 189 00aa 00C0      		rjmp .L18
 190               	.LVL31:
 191               	.L29:
 192 00ac 2D3A      		cpi r18,lo8(-83)
 193 00ae 01F4      		brne .L30
 194 00b0 27EB      		ldi r18,lo8(17591)
 195 00b2 34E4      		ldi r19,hi8(17591)
 196               	.LVL32:
 197 00b4 00C0      		rjmp .L18
 198               	.LVL33:
 199               	.L30:
 200 00b6 203B      		cpi r18,lo8(-80)
 201 00b8 01F4      		brne .L31
 202 00ba 2CEC      		ldi r18,lo8(17612)
 203 00bc 34E4      		ldi r19,hi8(17612)
 204               	.LVL34:
 205 00be 00C0      		rjmp .L18
 206               	.LVL35:
 207               	.L31:
 208 00c0 2E3A      		cpi r18,lo8(-82)
 209 00c2 01F4      		brne .L32
 210 00c4 2DEC      		ldi r18,lo8(17613)
 211 00c6 34E4      		ldi r19,hi8(17613)
 212               	.LVL36:
 213 00c8 00C0      		rjmp .L18
 214               	.LVL37:
 215               	.L32:
 216 00ca 2F3A      		cpi r18,lo8(-81)
 217 00cc 01F4      		brne .L33
 218 00ce 23E8      		ldi r18,lo8(17795)
 219 00d0 35E4      		ldi r19,hi8(17795)
 220               	.LVL38:
 221 00d2 00C0      		rjmp .L18
 222               	.LVL39:
 223               	.L33:
 224 00d4 213B      		cpi r18,lo8(-79)
 225 00d6 01F4      		brne .L34
 226 00d8 2AE8      		ldi r18,lo8(17802)
 227 00da 35E4      		ldi r19,hi8(17802)
 228               	.LVL40:
 229 00dc 00C0      		rjmp .L18
 230               	.LVL41:
 231               	.L34:
 232 00de 223B      		cpi r18,lo8(-78)
 233 00e0 01F4      		brne .L35
 234 00e2 22E9      		ldi r18,lo8(17810)
 235 00e4 35E4      		ldi r19,hi8(17810)
 236               	.LVL42:
 237 00e6 00C0      		rjmp .L18
 238               	.LVL43:
 239               	.L35:
 240 00e8 233B      		cpi r18,lo8(-77)
 241 00ea 01F4      		brne .L36
 242 00ec 24E9      		ldi r18,lo8(17812)
 243 00ee 35E4      		ldi r19,hi8(17812)
 244               	.LVL44:
 245 00f0 00C0      		rjmp .L18
 246               	.LVL45:
 247               	.L36:
 248 00f2 243B      		cpi r18,lo8(-76)
 249 00f4 01F4      		brne .L37
 250 00f6 21E2      		ldi r18,lo8(17953)
 251 00f8 36E4      		ldi r19,hi8(17953)
 252               	.LVL46:
 253 00fa 00C0      		rjmp .L18
 254               	.LVL47:
 255               	.L37:
 256 00fc 253B      		cpi r18,lo8(-75)
 257 00fe 01F4      		brne .L38
 258 0100 23E2      		ldi r18,lo8(17955)
 259 0102 36E4      		ldi r19,hi8(17955)
 260               	.LVL48:
 261 0104 00C0      		rjmp .L18
 262               	.LVL49:
 263               	.L38:
 264 0106 263B      		cpi r18,lo8(-74)
 265 0108 01F4      		brne .L39
 266 010a 24E2      		ldi r18,lo8(17956)
 267 010c 36E4      		ldi r19,hi8(17956)
 268               	.LVL50:
 269 010e 00C0      		rjmp .L18
 270               	.LVL51:
 271               	.L39:
 272 0110 273B      		cpi r18,lo8(-73)
 273 0112 01F4      		brne .L40
 274 0114 25E2      		ldi r18,lo8(17957)
 275 0116 36E4      		ldi r19,hi8(17957)
 276               	.LVL52:
 277 0118 00C0      		rjmp .L18
 278               	.LVL53:
 279               	.L40:
 280 011a 283B      		cpi r18,lo8(-72)
 281 011c 01F4      		brne .L41
 282 011e 26E2      		ldi r18,lo8(17958)
 283 0120 36E4      		ldi r19,hi8(17958)
 284               	.LVL54:
 285 0122 00C0      		rjmp .L18
 286               	.LVL55:
 287               	.L41:
 288 0124 293B      		cpi r18,lo8(-71)
 289 0126 01F4      		brne .L42
 290 0128 27E2      		ldi r18,lo8(17959)
 291 012a 36E4      		ldi r19,hi8(17959)
 292               	.LVL56:
 293 012c 00C0      		rjmp .L18
 294               	.LVL57:
 295               	.L42:
 296 012e 2A3B      		cpi r18,lo8(-70)
 297 0130 01F0      		breq .L43
 298 0132 20E0      		ldi r18,lo8(17408)
 299 0134 34E4      		ldi r19,hi8(17408)
 300               	.LVL58:
 301 0136 00C0      		rjmp .L18
 302               	.LVL59:
 303               	.L43:
 304 0138 2AE2      		ldi r18,lo8(17962)
 305 013a 36E4      		ldi r19,hi8(17962)
 306               	.LVL60:
 307 013c 00C0      		rjmp .L18
 308               	.LVL61:
 309               	.L50:
 310               	.LSM12:
 311 013e 30E0      		ldi r19,lo8(0)
 312               	.LVL62:
 313 0140 3065      		ori r19,hi8(20480)
 314               	.LVL63:
 315 0142 00C0      		rjmp .L18
 316               	.LVL64:
 317               	.L48:
 318               	.LSM13:
 319 0144 21E0      		ldi r18,lo8(1)
 320 0146 30E0      		ldi r19,hi8(1)
 321               	.LVL65:
 322 0148 00C0      		rjmp .L18
 323               	.LVL66:
 324               	.L49:
 325               	.LSM14:
 326 014a 0E94 0000 		call clear_keyboard
 327               	.LVL67:
 328 014e 84EF      		ldi r24,lo8(500)
 329 0150 91E0      		ldi r25,hi8(500)
 330               	.LVL68:
 331               	.LBB21:
 332               	.LBB22:
 333               	.LBB23:
 334               	.LBB24:
 335               	.LSM15:
 336 0152 20E9      		ldi r18,lo8(400)
 337 0154 31E0      		ldi r19,hi8(400)
 338               	.L44:
 339 0156 F901      		movw r30,r18
 340               	.LVL69:
 341               	/* #APP */
 342               	 ;  105 "c:/winavr-20100110/lib/gcc/../../avr/include/util/delay_basic.h" 1
 343 0158 3197      		1: sbiw r30,1
 344 015a 01F4      		brne 1b
 345               	 ;  0 "" 2
 346               	/* #NOAPP */
 347               	.LBE24:
 348               	.LBE23:
 349               	.LSM16:
 350 015c 0197      		sbiw r24,1
 351               	.LSM17:
 352 015e 01F4      		brne .L44
 353               	.LBE22:
 354               	.LBE21:
 355               	.LSM18:
 356 0160 0E94 0000 		call bootloader_jump
 357               	.LVL70:
 358 0164 00C0      		rjmp .L18
 359               	.LVL71:
 360               	.L9:
 361               	.LSM19:
 362 0166 20E0      		ldi r18,lo8(0)
 363 0168 30E0      		ldi r19,hi8(0)
 364               	.LVL72:
 365               	.L18:
 366               	.LBE20:
 367               	.LBE19:
 368               	.LSM20:
 369 016a C901      		movw r24,r18
 370               	.LVL73:
 371               	.LSM21:
 372 016c 0895      		ret
 373               	.LFE9:
 415               	.Letext0:
DEFINED SYMBOLS
                            *ABS*:00000000 keymap.c
C:\Users\User\AppData\Local\Temp/ccgZgPo7.s:2      *ABS*:0000003f __SREG__
C:\Users\User\AppData\Local\Temp/ccgZgPo7.s:3      *ABS*:0000003e __SP_H__
C:\Users\User\AppData\Local\Temp/ccgZgPo7.s:4      *ABS*:0000003d __SP_L__
C:\Users\User\AppData\Local\Temp/ccgZgPo7.s:5      *ABS*:00000034 __CCP__
C:\Users\User\AppData\Local\Temp/ccgZgPo7.s:6      *ABS*:00000000 __tmp_reg__
C:\Users\User\AppData\Local\Temp/ccgZgPo7.s:7      *ABS*:00000001 __zero_reg__
C:\Users\User\AppData\Local\Temp/ccgZgPo7.s:19     .text.action_get_macro:00000000 action_get_macro
C:\Users\User\AppData\Local\Temp/ccgZgPo7.s:36     .text.action_function:00000000 action_function
C:\Users\User\AppData\Local\Temp/ccgZgPo7.s:50     .text.action_for_key:00000000 action_for_key

UNDEFINED SYMBOLS
keymap_key_to_keycode
keymap_fn_to_action
clear_keyboard
bootloader_jump
